; Function Attrs: mustprogress uwtable
define void @_ZN5osgeo4proj8metadata6ExtentC2ERKS2_(ptr noundef nonnull align 8 dereferenceable(32) %0, ptr nocapture noundef nonnull readonly align 8 dereferenceable(32) %1) unnamed_addr #0 align 2 personality ptr @__gxx_personality_v0 {
  tail call void @_ZN5osgeo4proj4util10BaseObjectC2Ev(ptr noundef nonnull align 8 dereferenceable(16) %0)
  %3 = getelementptr inbounds i8, ptr %0, i64 16
  store ptr getelementptr inbounds inrange(-16, 24) ({ [5 x ptr], [5 x ptr] }, ptr @_ZTVN5osgeo4proj8metadata6ExtentE, i64 0, i32 0, i64 2), ptr %0, align 8
  store ptr getelementptr inbounds inrange(-16, 24) ({ [5 x ptr], [5 x ptr] }, ptr @_ZTVN5osgeo4proj8metadata6ExtentE, i64 0, i32 1, i64 2), ptr %3, align 8
  %4 = getelementptr inbounds i8, ptr %1, i64 24
  %5 = load ptr, ptr %4, align 8
  tail call void @llvm.experimental.noalias.scope.decl(metadata !55)
  %6 = invoke noalias noundef nonnull dereferenceable(112) ptr @_Znwm(i64 noundef 112) #27
          to label %.noexc unwind label %11

.noexc:                                           ; preds = %2
  invoke void @_ZN5osgeo4proj8metadata6Extent7PrivateC2ERKS3_(ptr noundef nonnull align 8 dereferenceable(112) %6, ptr noundef nonnull align 8 dereferenceable(112) %5)
          to label %9 unwind label %7, !noalias !55

7:                                                ; preds = %.noexc
  %8 = landingpad { ptr, i32 }
          cleanup
  tail call void @_ZdlPv(ptr noundef nonnull %6) #29, !noalias !55
  br label %.body

9:                                                ; preds = %.noexc
  %10 = getelementptr inbounds i8, ptr %0, i64 24
  store ptr %6, ptr %10, align 8, !alias.scope !55
  ret void

11:                                               ; preds = %2
  %12 = landingpad { ptr, i32 }
          cleanup
  br label %.body

.body:                                            ; preds = %7, %11
  %eh.lpad-body = phi { ptr, i32 } [ %12, %11 ], [ %8, %7 ]
  tail call void @_ZN5osgeo4proj4util11IComparableD2Ev(ptr noundef nonnull align 8 dereferenceable(8) %3) #28
  tail call void @_ZN5osgeo4proj4util10BaseObjectD2Ev(ptr noundef nonnull align 8 dereferenceable(16) %0) #28
  resume { ptr, i32 } %eh.lpad-body
}